(dp0
S'std'
p1
(lp2
cnumpy.core.multiarray
scalar
p3
(cnumpy
dtype
p4
(S'f4'
p5
I0
I1
tp6
Rp7
(I3
S'<'
p8
NNNI-1
I-1
I0
tp9
bS'n\xb1U>'
p10
tp11
Rp12
ag3
(g7
S'\x80\xd6I>'
p13
tp14
Rp15
ag3
(g7
S'\xdfF=>'
p16
tp17
Rp18
asS'mean'
p19
(lp20
g3
(g7
S'\xf7\xe3\x06?'
p21
tp22
Rp23
ag3
(g7
S'\xd9s\xf2>'
p24
tp25
Rp26
ag3
(g7
S'\xac\x16\xd3>'
p27
tp28
Rp29
as.